target datalayout = "e-m:e-p270:32:32-p271:32:32-p272:64:64-i64:64-i128:128-f80:128-n8:16:32:64-S128"
target triple = "x86_64-pc-linux-gnu"

%struct.AVCodecContext = type { ptr, i32, i32, ptr, i32, i32, ptr, ptr, ptr, i64, i32, i32, ptr, i32, %struct.AVRational, %struct.AVRational, %struct.AVRational, i32, i32, i32, i32, i32, %struct.AVRational, i32, i32, i32, i32, i32, i32, i32, i32, i32, i32, i32, ptr, ptr, i32, float, float, float, float, float, float, float, float, float, i32, i32, i32, i32, i32, i32, i32, i32, i32, i32, i32, i32, ptr, ptr, ptr, i32, i32, i32, i32, i32, i32, i32, i32, i32, i32, %struct.AVChannelLayout, i32, i32, i32, i32, i32, i32, i32, i32, ptr, i32, i32, i32, float, float, i32, i32, i32, i32, i32, ptr, i64, i64, float, float, i32, i32, ptr, ptr, i32, i32, i32, i32, i32, ptr, ptr, ptr, ptr, i32, i32, [8 x i64], i32, i32, i32, i32, i32, i32, i32, ptr, ptr, i32, i32, i32, i32, i32, i32, i32, i32, i32, i32, ptr, ptr, i32, i32, ptr, ptr, ptr, ptr, i32, i32, i64, i32, i32, i64, ptr, i64, ptr, i32, ptr, i32 }
%struct.AVRational = type { i32, i32 }
%struct.AVChannelLayout = type { i32, i32, %union.anon, ptr }
%union.anon = type { i64 }
%struct.H264Context = type { ptr, ptr, %struct.VideoDSPContext, %struct.H264DSPContext, %struct.H264ChromaContext, %struct.H264QpelContext, %struct.H274FilmGrainDatabase, [36 x %struct.H264Picture], ptr, %struct.H264Picture, %struct.H264Picture, ptr, i32, i32, %struct.H2645Packet, i32, i32, i32, i32, i32, i32, i32, i32, i32, i32, i32, i32, i32, i32, i32, i32, i32, ptr, %struct.H264PredContext, ptr, [96 x i32], ptr, ptr, i32, ptr, i32, i32, i32, ptr, ptr, ptr, [2 x ptr], ptr, [16 x i8], [16 x i8], [64 x i8], [64 x i8], [16 x i8], [64 x i8], [64 x i8], [16 x i8], [64 x i8], [64 x i8], [16 x i8], [64 x i8], [64 x i8], i32, i32, i32, i32, i32, i32, i32, i32, i32, i32, i32, i32, %struct.H264ParamSets, ptr, %struct.H264POCContext, [2 x %struct.H264Ref], [32 x ptr], [32 x ptr], [18 x ptr], [16 x i32], ptr, i32, i32, [67 x %struct.MMCO], i32, i32, i32, i32, i32, i32, i32, i32, i32, i32, i32, i32, i32, i32, i32, [32 x i16], i32, i32, i32, %struct.ERContext, ptr, %struct.H264SEIContext, ptr, ptr, ptr, ptr, ptr, [32 x [2 x [64 x i32]]], i32, i32, i32 }
%struct.VideoDSPContext = type { ptr, ptr }
%struct.H264DSPContext = type { [4 x ptr], [4 x ptr], ptr, ptr, ptr, ptr, ptr, ptr, ptr, ptr, ptr, ptr, ptr, ptr, ptr, ptr, ptr, ptr, ptr, ptr, ptr, ptr, ptr, ptr, ptr, ptr, ptr, ptr }
%struct.H264ChromaContext = type { [4 x ptr], [4 x ptr] }
%struct.H264QpelContext = type { [4 x [16 x ptr]], [4 x [16 x ptr]] }
%struct.H274FilmGrainDatabase = type { [13 x [13 x [64 x [64 x i8]]]], [13 x i16], [64 x [64 x i16]] }
%struct.H264Picture = type { ptr, %struct.ThreadFrame, ptr, ptr, ptr, [2 x ptr], [2 x ptr], ptr, ptr, ptr, [2 x ptr], [2 x i32], i32, i32, i32, i32, i32, [2 x [2 x [32 x i32]]], [2 x [2 x i32]], i32, i32, i32, i32, i32, i32, i32, ptr, i32, i32, i32, ptr, i32 }
%struct.ThreadFrame = type { ptr, [2 x ptr], ptr }
%struct.H2645Packet = type { ptr, %struct.H2645RBSP, i32, i32, i32 }
%struct.H2645RBSP = type { ptr, ptr, i32, i32 }
%struct.H264PredContext = type { [15 x ptr], [12 x ptr], [11 x ptr], [9 x ptr], [2 x ptr], [2 x ptr], [2 x ptr], [3 x ptr], [3 x ptr] }
%struct.H264ParamSets = type { [32 x ptr], [256 x ptr], ptr, ptr, [2 x i32] }
%struct.H264POCContext = type { i32, i32, i32, [2 x i32], i32, i32, i32, i32, i32, i32 }
%struct.H264Ref = type { [3 x ptr], [3 x i32], i32, i32, i32, ptr }
%struct.MMCO = type { i32, i32, i32 }
%struct.ERContext = type { ptr, ptr, i32, ptr, i32, i32, i32, i64, i64, i32, i32, ptr, ptr, [3 x ptr], ptr, ptr, [2 x [4 x [2 x i32]]], %struct.ERPicture, %struct.ERPicture, %struct.ERPicture, [2 x ptr], [2 x ptr], i16, i16, i32, i32, ptr, ptr }
%struct.ERPicture = type { ptr, ptr, ptr, [2 x ptr], [2 x ptr], ptr, i32 }
%struct.H264SEIContext = type { %struct.H2645SEI, %struct.H264SEIPictureTiming, %struct.H264SEIRecoveryPoint, %struct.H264SEIBufferingPeriod, %struct.H264SEIGreenMetaData }
%struct.H2645SEI = type { %struct.H2645SEIA53Caption, %struct.H2645SEIAFD, %struct.HEVCSEIDynamicHDRPlus, %struct.HEVCSEIDynamicHDRVivid, %struct.HEVCSEILCEVC, %struct.H2645SEIUnregistered, %struct.H2645SEIFramePacking, %struct.H2645SEIDisplayOrientation, %struct.H2645SEIAlternativeTransfer, %struct.H2645SEIAmbientViewingEnvironment, %struct.H2645SEIMasteringDisplay, %struct.H2645SEIContentLight, %struct.AVFilmGrainAFGS1Params, ptr }
%struct.H2645SEIA53Caption = type { ptr }
%struct.H2645SEIAFD = type { i32, i8 }
%struct.HEVCSEIDynamicHDRPlus = type { ptr }
%struct.HEVCSEIDynamicHDRVivid = type { ptr }
%struct.HEVCSEILCEVC = type { ptr }
%struct.H2645SEIUnregistered = type { ptr, i32, i32 }
%struct.H2645SEIFramePacking = type { i32, i32, i32, i32, i32, i32, i32, i32 }
%struct.H2645SEIDisplayOrientation = type { i32, i32, i32, i32 }
%struct.H2645SEIAlternativeTransfer = type { i32, i32 }
%struct.H2645SEIAmbientViewingEnvironment = type { i32, i32, i16, i16 }
%struct.H2645SEIMasteringDisplay = type { i32, [3 x [2 x i16]], [2 x i16], i32, i32 }
%struct.H2645SEIContentLight = type { i32, i16, i16 }
%struct.AVFilmGrainAFGS1Params = type { i32, [8 x ptr] }
%struct.H264SEIPictureTiming = type { [40 x i8], i32, i32, i32, i32, i32, i32, [3 x %struct.H264SEITimeCode], i32 }
%struct.H264SEITimeCode = type { i32, i32, i32, i32, i32, i32 }
%struct.H264SEIRecoveryPoint = type { i32 }
%struct.H264SEIBufferingPeriod = type { i32, [32 x i32] }
%struct.H264SEIGreenMetaData = type { i8, i8, i16, i16, i8, i8, i8, i8, i8, i16 }
%struct.H264SliceContext = type { ptr, %struct.GetBitContext, ptr, i32, i32, i32, i32, i32, [2 x i32], i32, i32, i32, i32, i32, %struct.H264PredWeightTable, i32, i32, i32, i32, [40 x i8], ptr, i32, i32, i32, [2 x i32], i32, i32, i32, [2 x i32], ptr, i32, i32, i32, i32, i32, i64, i64, i64, i64, i32, i32, i32, i32, i32, i32, i32, i32, i32, i32, i32, i32, i32, i32, i32, i32, i32, i32, i32, i32, [32 x i32], [2 x [32 x i32]], [2 x [48 x i32]], [2 x [2 x [48 x i32]]], [2 x i32], i32, [2 x [48 x %struct.H264Ref]], [2 x [32 x %struct.anon.3]], [2 x i32], i32, ptr, ptr, ptr, [2 x ptr], i32, i32, [2 x i32], [120 x i8], [8 x i8], [2 x [40 x [2 x i16]]], [2 x [40 x i8]], [2 x [40 x [2 x i8]]], [40 x i8], [4 x i16], [1536 x i16], [3 x [32 x i16]], [512 x i16], [2 x ptr], %struct.CABACContext, [1024 x i8], i32, [67 x %struct.MMCO], i32, i32, i32, i32, i32, i32, [2 x i32], i32, i32 }
%struct.GetBitContext = type { ptr, ptr, i32, i32, i32 }
%struct.H264PredWeightTable = type { i32, i32, i32, i32, [2 x i32], [2 x i32], [48 x [2 x [2 x i32]]], [48 x [2 x [2 x [2 x i32]]]], [48 x [48 x [2 x i32]]] }
%struct.anon.3 = type { i8, i32 }
%struct.CABACContext = type { i32, i32, ptr, ptr, ptr }

; Function Attrs: nounwind uwtable
define internal i32 @vaapi_h264_end_frame(ptr noundef %0) #0 {
  %2 = alloca ptr, align 8
  %3 = alloca ptr, align 8
  %4 = alloca ptr, align 8
  %5 = alloca ptr, align 8
  %6 = alloca i32, align 4
  store ptr %0, ptr %2, align 8, !tbaa !4
  call void @llvm.lifetime.start.p0(i64 8, ptr %3) #6
  %7 = load ptr, ptr %2, align 8, !tbaa !4
  %8 = getelementptr inbounds nuw %struct.AVCodecContext, ptr %7, i32 0, i32 6
  %9 = load ptr, ptr %8, align 8, !tbaa !15
  store ptr %9, ptr %3, align 8, !tbaa !32
  call void @llvm.lifetime.start.p0(i64 8, ptr %4) #6
  %10 = load ptr, ptr %3, align 8, !tbaa !32
  %11 = getelementptr inbounds nuw %struct.H264Context, ptr %10, i32 0, i32 8
  %12 = load ptr, ptr %11, align 8, !tbaa !34
  %13 = getelementptr inbounds nuw %struct.H264Picture, ptr %12, i32 0, i32 9
  %14 = load ptr, ptr %13, align 8, !tbaa !82
  store ptr %14, ptr %4, align 8, !tbaa !83
  call void @llvm.lifetime.start.p0(i64 8, ptr %5) #6
  %15 = load ptr, ptr %3, align 8, !tbaa !32
  %16 = getelementptr inbounds nuw %struct.H264Context, ptr %15, i32 0, i32 11
  %17 = load ptr, ptr %16, align 8, !tbaa !139
  %18 = getelementptr inbounds %struct.H264SliceContext, ptr %17, i64 0
  store ptr %18, ptr %5, align 8, !tbaa !140
  call void @llvm.lifetime.start.p0(i64 4, ptr %6) #6
  %19 = load ptr, ptr %2, align 8, !tbaa !4
  %20 = load ptr, ptr %4, align 8, !tbaa !83
  %21 = call i32 @ff_vaapi_decode_issue(ptr noundef %19, ptr noundef %20)
  store i32 %21, ptr %6, align 4, !tbaa !13
  %22 = load i32, ptr %6, align 4, !tbaa !13
  %23 = icmp slt i32 %22, 0
  br i1 %23, label %24, label %25

24:                                               ; preds = %1
  br label %33

25:                                               ; preds = %1
  %26 = load ptr, ptr %3, align 8, !tbaa !32
  %27 = load ptr, ptr %5, align 8, !tbaa !140
  %28 = load ptr, ptr %3, align 8, !tbaa !32
  %29 = getelementptr inbounds nuw %struct.H264Context, ptr %28, i32 0, i32 1
  %30 = load ptr, ptr %29, align 8, !tbaa !175
  %31 = getelementptr inbounds nuw %struct.AVCodecContext, ptr %30, i32 0, i32 19
  %32 = load i32, ptr %31, align 4, !tbaa !176
  call void @ff_h264_draw_horiz_band(ptr noundef %26, ptr noundef %27, i32 noundef 0, i32 noundef %32)
  br label %33

33:                                               ; preds = %25, %24
  %34 = load i32, ptr %6, align 4, !tbaa !13
  call void @llvm.lifetime.end.p0(i64 4, ptr %6) #6
  call void @llvm.lifetime.end.p0(i64 8, ptr %5) #6
  call void @llvm.lifetime.end.p0(i64 8, ptr %4) #6
  call void @llvm.lifetime.end.p0(i64 8, ptr %3) #6
  ret i32 %34
}