; Function Attrs: nounwind uwtable
define internal i32 @vaapi_h264_end_frame(ptr noundef %0) #0 {
  %2 = getelementptr inbounds nuw i8, ptr %0, i64 32
  %3 = load ptr, ptr %2, align 8, !tbaa !4
  %4 = getelementptr inbounds nuw i8, ptr %3, i64 729200
  %5 = load ptr, ptr %4, align 8, !tbaa !27
  %6 = getelementptr inbounds nuw i8, ptr %5, i64 112
  %7 = load ptr, ptr %6, align 8, !tbaa !76
  %8 = getelementptr inbounds nuw i8, ptr %3, i64 730728
  %9 = load ptr, ptr %8, align 8, !tbaa !137
  %10 = tail call i32 @ff_vaapi_decode_issue(ptr noundef %0, ptr noundef %7) #7
  %11 = icmp slt i32 %10, 0
  br i1 %11, label %17, label %12

12:                                               ; preds = %1
  %13 = getelementptr inbounds nuw i8, ptr %3, i64 8
  %14 = load ptr, ptr %13, align 8, !tbaa !163
  %15 = getelementptr inbounds nuw i8, ptr %14, i64 116
  %16 = load i32, ptr %15, align 4, !tbaa !164
  tail call void @ff_h264_draw_horiz_band(ptr noundef nonnull %3, ptr noundef %9, i32 noundef 0, i32 noundef %16) #7
  br label %17

17:                                               ; preds = %1, %12
  ret i32 %10
}